target datalayout = "e-m:e-p270:32:32-p271:32:32-p272:64:64-i64:64-i128:128-f80:128-n8:16:32:64-S128"
target triple = "x86_64-pc-linux-gnu"

%struct.yyguts_t = type { ptr, ptr, ptr, i64, i64, ptr, i8, i32, i32, ptr, i32, i32, i32, i32, i32, ptr, i32, ptr, i32, i32, ptr, i32, i32, ptr, ptr }

@_ZL7yy_meta = internal constant [45 x i8] c"\00\01\01\02\02\01\03\04\01\05\03\03\06\07\08\09\08\0A\09\09\0B\01\0C\01\09\09\01\09\09\09\09\09\09\09\09\09\09\09\09\09\09\01\01\01\03", align 16

; Function Attrs: mustprogress nounwind uwtable
define internal noundef i32 @_ZL16yy_try_NUL_transiPv(i32 noundef %0, ptr noundef %1) #2 {
  %3 = alloca i32, align 4
  %4 = alloca ptr, align 8
  %5 = alloca i32, align 4
  %6 = alloca ptr, align 8
  %7 = alloca ptr, align 8
  %8 = alloca i8, align 1
  store i32 %0, ptr %3, align 4
  store ptr %1, ptr %4, align 8
  %9 = load ptr, ptr %4, align 8
  store ptr %9, ptr %6, align 8
  %10 = load ptr, ptr %6, align 8
  %11 = getelementptr inbounds %struct.yyguts_t, ptr %10, i32 0, i32 9
  %12 = load ptr, ptr %11, align 8
  store ptr %12, ptr %7, align 8
  store i8 1, ptr %8, align 1
  %13 = load i32, ptr %3, align 4
  %14 = sext i32 %13 to i64
  %15 = getelementptr inbounds [169 x i32], ptr @_ZL9yy_accept, i64 0, i64 %14
  %16 = load i32, ptr %15, align 4
  %17 = icmp ne i32 %16, 0
  br i1 %17, label %18, label %25

18:                                               ; preds = %2
  %19 = load i32, ptr %3, align 4
  %20 = load ptr, ptr %6, align 8
  %21 = getelementptr inbounds %struct.yyguts_t, ptr %20, i32 0, i32 16
  store i32 %19, ptr %21, align 8
  %22 = load ptr, ptr %7, align 8
  %23 = load ptr, ptr %6, align 8
  %24 = getelementptr inbounds %struct.yyguts_t, ptr %23, i32 0, i32 17
  store ptr %22, ptr %24, align 8
  br label %25

25:                                               ; preds = %18, %2
  br label %26

26:                                               ; preds = %51, %25
  %27 = load i32, ptr %3, align 4
  %28 = sext i32 %27 to i64
  %29 = getelementptr inbounds [191 x i32], ptr @_ZL7yy_base, i64 0, i64 %28
  %30 = load i32, ptr %29, align 4
  %31 = load i8, ptr %8, align 1
  %32 = zext i8 %31 to i32
  %33 = add nsw i32 %30, %32
  %34 = sext i32 %33 to i64
  %35 = getelementptr inbounds [602 x i32], ptr @_ZL6yy_chk, i64 0, i64 %34
  %36 = load i32, ptr %35, align 4
  %37 = load i32, ptr %3, align 4
  %38 = icmp ne i32 %36, %37
  br i1 %38, label %39, label %52

39:                                               ; preds = %26
  %40 = load i32, ptr %3, align 4
  %41 = sext i32 %40 to i64
  %42 = getelementptr inbounds [191 x i32], ptr @_ZL6yy_def, i64 0, i64 %41
  %43 = load i32, ptr %42, align 4
  store i32 %43, ptr %3, align 4
  %44 = load i32, ptr %3, align 4
  %45 = icmp sge i32 %44, 169
  br i1 %45, label %46, label %51

46:                                               ; preds = %39
  %47 = load i8, ptr %8, align 1
  %48 = zext i8 %47 to i64
  %49 = getelementptr inbounds [45 x i8], ptr @_ZL7yy_meta, i64 0, i64 %48
  %50 = load i8, ptr %49, align 1
  store i8 %50, ptr %8, align 1
  br label %51

51:                                               ; preds = %46, %39
  br label %26, !llvm.loop !12

52:                                               ; preds = %26
  %53 = load i32, ptr %3, align 4
  %54 = sext i32 %53 to i64
  %55 = getelementptr inbounds [191 x i32], ptr @_ZL7yy_base, i64 0, i64 %54
  %56 = load i32, ptr %55, align 4
  %57 = load i8, ptr %8, align 1
  %58 = zext i8 %57 to i32
  %59 = add nsw i32 %56, %58
  %60 = sext i32 %59 to i64
  %61 = getelementptr inbounds [602 x i32], ptr @_ZL6yy_nxt, i64 0, i64 %60
  %62 = load i32, ptr %61, align 4
  store i32 %62, ptr %3, align 4
  %63 = load i32, ptr %3, align 4
  %64 = icmp eq i32 %63, 168
  %65 = zext i1 %64 to i32
  store i32 %65, ptr %5, align 4
  %66 = load i32, ptr %5, align 4
  %67 = icmp ne i32 %66, 0
  br i1 %67, label %68, label %69

68:                                               ; preds = %52
  br label %71

69:                                               ; preds = %52
  %70 = load i32, ptr %3, align 4
  br label %71

71:                                               ; preds = %69, %68
  %72 = phi i32 [ 0, %68 ], [ %70, %69 ]
  ret i32 %72
}