; Function Attrs: mustprogress nofree norecurse nosync nounwind memory(argmem: readwrite) uwtable
define internal fastcc noundef i32 @_ZL16yy_try_NUL_transiPv(i32 noundef %0, ptr nocapture noundef %1) unnamed_addr #15 {
  %3 = sext i32 %0 to i64
  %4 = getelementptr inbounds [169 x i32], ptr @_ZL9yy_accept, i64 0, i64 %3
  %5 = load i32, ptr %4, align 4
  %.not = icmp eq i32 %5, 0
  br i1 %.not, label %11, label %6

6:                                                ; preds = %2
  %7 = getelementptr inbounds i8, ptr %1, i64 64
  %8 = load ptr, ptr %7, align 8
  %9 = getelementptr inbounds i8, ptr %1, i64 104
  store i32 %0, ptr %9, align 8
  %10 = getelementptr inbounds i8, ptr %1, i64 112
  store ptr %8, ptr %10, align 8
  br label %11

11:                                               ; preds = %6, %2
  %12 = getelementptr inbounds [191 x i32], ptr @_ZL7yy_base, i64 0, i64 %3
  %13 = load i32, ptr %12, align 4
  %14 = add nsw i32 %13, 1
  %15 = sext i32 %14 to i64
  %16 = getelementptr inbounds [602 x i32], ptr @_ZL6yy_chk, i64 0, i64 %15
  %17 = load i32, ptr %16, align 4
  %.not1819 = icmp eq i32 %17, %0
  br i1 %.not1819, label %._crit_edge, label %.lr.ph

.lr.ph:                                           ; preds = %11, %.lr.ph
  %18 = phi i64 [ %21, %.lr.ph ], [ %3, %11 ]
  %19 = getelementptr inbounds [191 x i32], ptr @_ZL6yy_def, i64 0, i64 %18
  %20 = load i32, ptr %19, align 4
  %21 = sext i32 %20 to i64
  %22 = getelementptr inbounds [191 x i32], ptr @_ZL7yy_base, i64 0, i64 %21
  %23 = load i32, ptr %22, align 4
  %24 = add nsw i32 %23, 1
  %25 = sext i32 %24 to i64
  %26 = getelementptr inbounds [602 x i32], ptr @_ZL6yy_chk, i64 0, i64 %25
  %27 = load i32, ptr %26, align 4
  %.not18 = icmp eq i32 %27, %20
  br i1 %.not18, label %._crit_edge, label %.lr.ph, !llvm.loop !20

._crit_edge:                                      ; preds = %.lr.ph, %11
  %.lcssa = phi i64 [ %15, %11 ], [ %25, %.lr.ph ]
  %28 = getelementptr inbounds [602 x i32], ptr @_ZL6yy_nxt, i64 0, i64 %.lcssa
  %29 = load i32, ptr %28, align 4
  %30 = icmp eq i32 %29, 168
  %31 = select i1 %30, i32 0, i32 %29
  ret i32 %31
}